
sketch_feb17a.cpp.elf:     file format elf32-avr


Disassembly of section .text:

00000000 <__vectors>:
   0:	0c 94 5c 00 	jmp	0xb8	; 0xb8 <__ctors_end>
   4:	0c 94 6e 00 	jmp	0xdc	; 0xdc <__bad_interrupt>
   8:	0c 94 6e 00 	jmp	0xdc	; 0xdc <__bad_interrupt>
   c:	0c 94 6e 00 	jmp	0xdc	; 0xdc <__bad_interrupt>
  10:	0c 94 6e 00 	jmp	0xdc	; 0xdc <__bad_interrupt>
  14:	0c 94 6e 00 	jmp	0xdc	; 0xdc <__bad_interrupt>
  18:	0c 94 6e 00 	jmp	0xdc	; 0xdc <__bad_interrupt>
  1c:	0c 94 6e 00 	jmp	0xdc	; 0xdc <__bad_interrupt>
  20:	0c 94 6e 00 	jmp	0xdc	; 0xdc <__bad_interrupt>
  24:	0c 94 6e 00 	jmp	0xdc	; 0xdc <__bad_interrupt>
  28:	0c 94 6e 00 	jmp	0xdc	; 0xdc <__bad_interrupt>
  2c:	0c 94 6e 00 	jmp	0xdc	; 0xdc <__bad_interrupt>
  30:	0c 94 6e 00 	jmp	0xdc	; 0xdc <__bad_interrupt>
  34:	0c 94 6e 00 	jmp	0xdc	; 0xdc <__bad_interrupt>
  38:	0c 94 6e 00 	jmp	0xdc	; 0xdc <__bad_interrupt>
  3c:	0c 94 6e 00 	jmp	0xdc	; 0xdc <__bad_interrupt>
  40:	0c 94 20 01 	jmp	0x240	; 0x240 <__vector_16>
  44:	0c 94 6e 00 	jmp	0xdc	; 0xdc <__bad_interrupt>
  48:	0c 94 6e 00 	jmp	0xdc	; 0xdc <__bad_interrupt>
  4c:	0c 94 6e 00 	jmp	0xdc	; 0xdc <__bad_interrupt>
  50:	0c 94 6e 00 	jmp	0xdc	; 0xdc <__bad_interrupt>
  54:	0c 94 6e 00 	jmp	0xdc	; 0xdc <__bad_interrupt>
  58:	0c 94 6e 00 	jmp	0xdc	; 0xdc <__bad_interrupt>
  5c:	0c 94 6e 00 	jmp	0xdc	; 0xdc <__bad_interrupt>
  60:	0c 94 6e 00 	jmp	0xdc	; 0xdc <__bad_interrupt>
  64:	0c 94 6e 00 	jmp	0xdc	; 0xdc <__bad_interrupt>

00000068 <__trampolines_end>:
  68:	00 00       	nop
  6a:	00 08       	sbc	r0, r0
  6c:	00 02       	muls	r16, r16
  6e:	01 00       	.word	0x0001	; ????
  70:	00 03       	mulsu	r16, r16
  72:	04 07       	cpc	r16, r20
	...

0000007c <digital_pin_to_bit_mask_PGM>:
  7c:	01 02       	muls	r16, r17
  7e:	04 08       	sbc	r0, r4
  80:	10 20       	and	r1, r0
  82:	40 80       	ld	r4, Z
  84:	01 02       	muls	r16, r17
  86:	04 08       	sbc	r0, r4
  88:	10 20       	and	r1, r0
  8a:	01 02       	muls	r16, r17
  8c:	04 08       	sbc	r0, r4
  8e:	10 20       	and	r1, r0

00000090 <digital_pin_to_port_PGM>:
  90:	04 04       	cpc	r0, r4
  92:	04 04       	cpc	r0, r4
  94:	04 04       	cpc	r0, r4
  96:	04 04       	cpc	r0, r4
  98:	02 02       	muls	r16, r18
  9a:	02 02       	muls	r16, r18
  9c:	02 02       	muls	r16, r18
  9e:	03 03       	mulsu	r16, r19
  a0:	03 03       	mulsu	r16, r19
  a2:	03 03       	mulsu	r16, r19

000000a4 <port_to_output_PGM>:
  a4:	00 00       	nop
  a6:	00 00       	nop
  a8:	25 00       	.word	0x0025	; ????
  aa:	28 00       	.word	0x0028	; ????
  ac:	2b 00       	.word	0x002b	; ????

000000ae <port_to_mode_PGM>:
  ae:	00 00       	nop
  b0:	00 00       	nop
  b2:	24 00       	.word	0x0024	; ????
  b4:	27 00       	.word	0x0027	; ????
  b6:	2a 00       	.word	0x002a	; ????

000000b8 <__ctors_end>:
  b8:	11 24       	eor	r1, r1
  ba:	1f be       	out	0x3f, r1	; 63
  bc:	cf ef       	ldi	r28, 0xFF	; 255
  be:	d8 e0       	ldi	r29, 0x08	; 8
  c0:	de bf       	out	0x3e, r29	; 62
  c2:	cd bf       	out	0x3d, r28	; 61

000000c4 <__do_clear_bss>:
  c4:	21 e0       	ldi	r18, 0x01	; 1
  c6:	a0 e0       	ldi	r26, 0x00	; 0
  c8:	b1 e0       	ldi	r27, 0x01	; 1
  ca:	01 c0       	rjmp	.+2      	; 0xce <.do_clear_bss_start>

000000cc <.do_clear_bss_loop>:
  cc:	1d 92       	st	X+, r1

000000ce <.do_clear_bss_start>:
  ce:	a9 30       	cpi	r26, 0x09	; 9
  d0:	b2 07       	cpc	r27, r18
  d2:	e1 f7       	brne	.-8      	; 0xcc <.do_clear_bss_loop>
  d4:	0e 94 f1 01 	call	0x3e2	; 0x3e2 <main>
  d8:	0c 94 01 02 	jmp	0x402	; 0x402 <_exit>

000000dc <__bad_interrupt>:
  dc:	0c 94 00 00 	jmp	0	; 0x0 <__vectors>

000000e0 <setup>:
  e0:	61 e0       	ldi	r22, 0x01	; 1
  e2:	8d e0       	ldi	r24, 0x0D	; 13
  e4:	0c 94 b1 00 	jmp	0x162	; 0x162 <pinMode>

000000e8 <loop>:
  e8:	61 e0       	ldi	r22, 0x01	; 1
  ea:	8d e0       	ldi	r24, 0x0D	; 13
  ec:	0e 94 ea 00 	call	0x1d4	; 0x1d4 <digitalWrite>
  f0:	68 ee       	ldi	r22, 0xE8	; 232
  f2:	73 e0       	ldi	r23, 0x03	; 3
  f4:	80 e0       	ldi	r24, 0x00	; 0
  f6:	90 e0       	ldi	r25, 0x00	; 0
  f8:	0e 94 8d 01 	call	0x31a	; 0x31a <delay>
  fc:	60 e0       	ldi	r22, 0x00	; 0
  fe:	8d e0       	ldi	r24, 0x0D	; 13
 100:	0e 94 ea 00 	call	0x1d4	; 0x1d4 <digitalWrite>
 104:	68 ee       	ldi	r22, 0xE8	; 232
 106:	73 e0       	ldi	r23, 0x03	; 3
 108:	80 e0       	ldi	r24, 0x00	; 0
 10a:	90 e0       	ldi	r25, 0x00	; 0
 10c:	0c 94 8d 01 	jmp	0x31a	; 0x31a <delay>

00000110 <turnOffPWM>:
 110:	83 30       	cpi	r24, 0x03	; 3
 112:	81 f0       	breq	.+32     	; 0x134 <turnOffPWM+0x24>
 114:	28 f4       	brcc	.+10     	; 0x120 <turnOffPWM+0x10>
 116:	81 30       	cpi	r24, 0x01	; 1
 118:	99 f0       	breq	.+38     	; 0x140 <turnOffPWM+0x30>
 11a:	82 30       	cpi	r24, 0x02	; 2
 11c:	a1 f0       	breq	.+40     	; 0x146 <turnOffPWM+0x36>
 11e:	08 95       	ret
 120:	87 30       	cpi	r24, 0x07	; 7
 122:	a9 f0       	breq	.+42     	; 0x14e <turnOffPWM+0x3e>
 124:	88 30       	cpi	r24, 0x08	; 8
 126:	b9 f0       	breq	.+46     	; 0x156 <turnOffPWM+0x46>
 128:	84 30       	cpi	r24, 0x04	; 4
 12a:	d1 f4       	brne	.+52     	; 0x160 <turnOffPWM+0x50>
 12c:	80 91 80 00 	lds	r24, 0x0080
 130:	8f 7d       	andi	r24, 0xDF	; 223
 132:	03 c0       	rjmp	.+6      	; 0x13a <turnOffPWM+0x2a>
 134:	80 91 80 00 	lds	r24, 0x0080
 138:	8f 77       	andi	r24, 0x7F	; 127
 13a:	80 93 80 00 	sts	0x0080, r24
 13e:	08 95       	ret
 140:	84 b5       	in	r24, 0x24	; 36
 142:	8f 77       	andi	r24, 0x7F	; 127
 144:	02 c0       	rjmp	.+4      	; 0x14a <turnOffPWM+0x3a>
 146:	84 b5       	in	r24, 0x24	; 36
 148:	8f 7d       	andi	r24, 0xDF	; 223
 14a:	84 bd       	out	0x24, r24	; 36
 14c:	08 95       	ret
 14e:	80 91 b0 00 	lds	r24, 0x00B0
 152:	8f 77       	andi	r24, 0x7F	; 127
 154:	03 c0       	rjmp	.+6      	; 0x15c <turnOffPWM+0x4c>
 156:	80 91 b0 00 	lds	r24, 0x00B0
 15a:	8f 7d       	andi	r24, 0xDF	; 223
 15c:	80 93 b0 00 	sts	0x00B0, r24
 160:	08 95       	ret

00000162 <pinMode>:
 162:	cf 93       	push	r28
 164:	df 93       	push	r29
 166:	90 e0       	ldi	r25, 0x00	; 0
 168:	fc 01       	movw	r30, r24
 16a:	e4 58       	subi	r30, 0x84	; 132
 16c:	ff 4f       	sbci	r31, 0xFF	; 255
 16e:	24 91       	lpm	r18, Z
 170:	fc 01       	movw	r30, r24
 172:	e0 57       	subi	r30, 0x70	; 112
 174:	ff 4f       	sbci	r31, 0xFF	; 255
 176:	84 91       	lpm	r24, Z
 178:	88 23       	and	r24, r24
 17a:	49 f1       	breq	.+82     	; 0x1ce <pinMode+0x6c>
 17c:	90 e0       	ldi	r25, 0x00	; 0
 17e:	88 0f       	add	r24, r24
 180:	99 1f       	adc	r25, r25
 182:	fc 01       	movw	r30, r24
 184:	e2 55       	subi	r30, 0x52	; 82
 186:	ff 4f       	sbci	r31, 0xFF	; 255
 188:	a5 91       	lpm	r26, Z+
 18a:	b4 91       	lpm	r27, Z
 18c:	8c 55       	subi	r24, 0x5C	; 92
 18e:	9f 4f       	sbci	r25, 0xFF	; 255
 190:	fc 01       	movw	r30, r24
 192:	c5 91       	lpm	r28, Z+
 194:	d4 91       	lpm	r29, Z
 196:	9f b7       	in	r25, 0x3f	; 63
 198:	61 11       	cpse	r22, r1
 19a:	08 c0       	rjmp	.+16     	; 0x1ac <pinMode+0x4a>
 19c:	f8 94       	cli
 19e:	8c 91       	ld	r24, X
 1a0:	20 95       	com	r18
 1a2:	82 23       	and	r24, r18
 1a4:	8c 93       	st	X, r24
 1a6:	88 81       	ld	r24, Y
 1a8:	82 23       	and	r24, r18
 1aa:	0a c0       	rjmp	.+20     	; 0x1c0 <pinMode+0x5e>
 1ac:	62 30       	cpi	r22, 0x02	; 2
 1ae:	51 f4       	brne	.+20     	; 0x1c4 <pinMode+0x62>
 1b0:	f8 94       	cli
 1b2:	8c 91       	ld	r24, X
 1b4:	32 2f       	mov	r19, r18
 1b6:	30 95       	com	r19
 1b8:	83 23       	and	r24, r19
 1ba:	8c 93       	st	X, r24
 1bc:	88 81       	ld	r24, Y
 1be:	82 2b       	or	r24, r18
 1c0:	88 83       	st	Y, r24
 1c2:	04 c0       	rjmp	.+8      	; 0x1cc <pinMode+0x6a>
 1c4:	f8 94       	cli
 1c6:	8c 91       	ld	r24, X
 1c8:	82 2b       	or	r24, r18
 1ca:	8c 93       	st	X, r24
 1cc:	9f bf       	out	0x3f, r25	; 63
 1ce:	df 91       	pop	r29
 1d0:	cf 91       	pop	r28
 1d2:	08 95       	ret

000001d4 <digitalWrite>:
 1d4:	0f 93       	push	r16
 1d6:	1f 93       	push	r17
 1d8:	cf 93       	push	r28
 1da:	df 93       	push	r29
 1dc:	1f 92       	push	r1
 1de:	cd b7       	in	r28, 0x3d	; 61
 1e0:	de b7       	in	r29, 0x3e	; 62
 1e2:	28 2f       	mov	r18, r24
 1e4:	30 e0       	ldi	r19, 0x00	; 0
 1e6:	f9 01       	movw	r30, r18
 1e8:	e8 59       	subi	r30, 0x98	; 152
 1ea:	ff 4f       	sbci	r31, 0xFF	; 255
 1ec:	84 91       	lpm	r24, Z
 1ee:	f9 01       	movw	r30, r18
 1f0:	e4 58       	subi	r30, 0x84	; 132
 1f2:	ff 4f       	sbci	r31, 0xFF	; 255
 1f4:	14 91       	lpm	r17, Z
 1f6:	f9 01       	movw	r30, r18
 1f8:	e0 57       	subi	r30, 0x70	; 112
 1fa:	ff 4f       	sbci	r31, 0xFF	; 255
 1fc:	04 91       	lpm	r16, Z
 1fe:	00 23       	and	r16, r16
 200:	c9 f0       	breq	.+50     	; 0x234 <digitalWrite+0x60>
 202:	88 23       	and	r24, r24
 204:	21 f0       	breq	.+8      	; 0x20e <digitalWrite+0x3a>
 206:	69 83       	std	Y+1, r22	; 0x01
 208:	0e 94 88 00 	call	0x110	; 0x110 <turnOffPWM>
 20c:	69 81       	ldd	r22, Y+1	; 0x01
 20e:	e0 2f       	mov	r30, r16
 210:	f0 e0       	ldi	r31, 0x00	; 0
 212:	ee 0f       	add	r30, r30
 214:	ff 1f       	adc	r31, r31
 216:	ec 55       	subi	r30, 0x5C	; 92
 218:	ff 4f       	sbci	r31, 0xFF	; 255
 21a:	a5 91       	lpm	r26, Z+
 21c:	b4 91       	lpm	r27, Z
 21e:	9f b7       	in	r25, 0x3f	; 63
 220:	f8 94       	cli
 222:	8c 91       	ld	r24, X
 224:	61 11       	cpse	r22, r1
 226:	03 c0       	rjmp	.+6      	; 0x22e <digitalWrite+0x5a>
 228:	10 95       	com	r17
 22a:	81 23       	and	r24, r17
 22c:	01 c0       	rjmp	.+2      	; 0x230 <digitalWrite+0x5c>
 22e:	81 2b       	or	r24, r17
 230:	8c 93       	st	X, r24
 232:	9f bf       	out	0x3f, r25	; 63
 234:	0f 90       	pop	r0
 236:	df 91       	pop	r29
 238:	cf 91       	pop	r28
 23a:	1f 91       	pop	r17
 23c:	0f 91       	pop	r16
 23e:	08 95       	ret

00000240 <__vector_16>:
 240:	1f 92       	push	r1
 242:	0f 92       	push	r0
 244:	0f b6       	in	r0, 0x3f	; 63
 246:	0f 92       	push	r0
 248:	11 24       	eor	r1, r1
 24a:	2f 93       	push	r18
 24c:	3f 93       	push	r19
 24e:	8f 93       	push	r24
 250:	9f 93       	push	r25
 252:	af 93       	push	r26
 254:	bf 93       	push	r27
 256:	80 91 01 01 	lds	r24, 0x0101
 25a:	90 91 02 01 	lds	r25, 0x0102
 25e:	a0 91 03 01 	lds	r26, 0x0103
 262:	b0 91 04 01 	lds	r27, 0x0104
 266:	30 91 00 01 	lds	r19, 0x0100
 26a:	23 e0       	ldi	r18, 0x03	; 3
 26c:	23 0f       	add	r18, r19
 26e:	2d 37       	cpi	r18, 0x7D	; 125
 270:	20 f4       	brcc	.+8      	; 0x27a <__vector_16+0x3a>
 272:	01 96       	adiw	r24, 0x01	; 1
 274:	a1 1d       	adc	r26, r1
 276:	b1 1d       	adc	r27, r1
 278:	05 c0       	rjmp	.+10     	; 0x284 <__vector_16+0x44>
 27a:	26 e8       	ldi	r18, 0x86	; 134
 27c:	23 0f       	add	r18, r19
 27e:	02 96       	adiw	r24, 0x02	; 2
 280:	a1 1d       	adc	r26, r1
 282:	b1 1d       	adc	r27, r1
 284:	20 93 00 01 	sts	0x0100, r18
 288:	80 93 01 01 	sts	0x0101, r24
 28c:	90 93 02 01 	sts	0x0102, r25
 290:	a0 93 03 01 	sts	0x0103, r26
 294:	b0 93 04 01 	sts	0x0104, r27
 298:	80 91 05 01 	lds	r24, 0x0105
 29c:	90 91 06 01 	lds	r25, 0x0106
 2a0:	a0 91 07 01 	lds	r26, 0x0107
 2a4:	b0 91 08 01 	lds	r27, 0x0108
 2a8:	01 96       	adiw	r24, 0x01	; 1
 2aa:	a1 1d       	adc	r26, r1
 2ac:	b1 1d       	adc	r27, r1
 2ae:	80 93 05 01 	sts	0x0105, r24
 2b2:	90 93 06 01 	sts	0x0106, r25
 2b6:	a0 93 07 01 	sts	0x0107, r26
 2ba:	b0 93 08 01 	sts	0x0108, r27
 2be:	bf 91       	pop	r27
 2c0:	af 91       	pop	r26
 2c2:	9f 91       	pop	r25
 2c4:	8f 91       	pop	r24
 2c6:	3f 91       	pop	r19
 2c8:	2f 91       	pop	r18
 2ca:	0f 90       	pop	r0
 2cc:	0f be       	out	0x3f, r0	; 63
 2ce:	0f 90       	pop	r0
 2d0:	1f 90       	pop	r1
 2d2:	18 95       	reti

000002d4 <micros>:
 2d4:	3f b7       	in	r19, 0x3f	; 63
 2d6:	f8 94       	cli
 2d8:	80 91 05 01 	lds	r24, 0x0105
 2dc:	90 91 06 01 	lds	r25, 0x0106
 2e0:	a0 91 07 01 	lds	r26, 0x0107
 2e4:	b0 91 08 01 	lds	r27, 0x0108
 2e8:	26 b5       	in	r18, 0x26	; 38
 2ea:	a8 9b       	sbis	0x15, 0	; 21
 2ec:	05 c0       	rjmp	.+10     	; 0x2f8 <micros+0x24>
 2ee:	2f 3f       	cpi	r18, 0xFF	; 255
 2f0:	19 f0       	breq	.+6      	; 0x2f8 <micros+0x24>
 2f2:	01 96       	adiw	r24, 0x01	; 1
 2f4:	a1 1d       	adc	r26, r1
 2f6:	b1 1d       	adc	r27, r1
 2f8:	3f bf       	out	0x3f, r19	; 63
 2fa:	66 27       	eor	r22, r22
 2fc:	78 2f       	mov	r23, r24
 2fe:	89 2f       	mov	r24, r25
 300:	9a 2f       	mov	r25, r26
 302:	62 0f       	add	r22, r18
 304:	71 1d       	adc	r23, r1
 306:	81 1d       	adc	r24, r1
 308:	91 1d       	adc	r25, r1
 30a:	42 e0       	ldi	r20, 0x02	; 2
 30c:	66 0f       	add	r22, r22
 30e:	77 1f       	adc	r23, r23
 310:	88 1f       	adc	r24, r24
 312:	99 1f       	adc	r25, r25
 314:	4a 95       	dec	r20
 316:	d1 f7       	brne	.-12     	; 0x30c <micros+0x38>
 318:	08 95       	ret

0000031a <delay>:
 31a:	cf 92       	push	r12
 31c:	df 92       	push	r13
 31e:	ef 92       	push	r14
 320:	ff 92       	push	r15
 322:	cf 93       	push	r28
 324:	df 93       	push	r29
 326:	6b 01       	movw	r12, r22
 328:	7c 01       	movw	r14, r24
 32a:	0e 94 6a 01 	call	0x2d4	; 0x2d4 <micros>
 32e:	eb 01       	movw	r28, r22
 330:	c1 14       	cp	r12, r1
 332:	d1 04       	cpc	r13, r1
 334:	e1 04       	cpc	r14, r1
 336:	f1 04       	cpc	r15, r1
 338:	89 f0       	breq	.+34     	; 0x35c <delay+0x42>
 33a:	0e 94 00 02 	call	0x400	; 0x400 <yield>
 33e:	0e 94 6a 01 	call	0x2d4	; 0x2d4 <micros>
 342:	6c 1b       	sub	r22, r28
 344:	7d 0b       	sbc	r23, r29
 346:	68 3e       	cpi	r22, 0xE8	; 232
 348:	73 40       	sbci	r23, 0x03	; 3
 34a:	90 f3       	brcs	.-28     	; 0x330 <delay+0x16>
 34c:	81 e0       	ldi	r24, 0x01	; 1
 34e:	c8 1a       	sub	r12, r24
 350:	d1 08       	sbc	r13, r1
 352:	e1 08       	sbc	r14, r1
 354:	f1 08       	sbc	r15, r1
 356:	c8 51       	subi	r28, 0x18	; 24
 358:	dc 4f       	sbci	r29, 0xFC	; 252
 35a:	ea cf       	rjmp	.-44     	; 0x330 <delay+0x16>
 35c:	df 91       	pop	r29
 35e:	cf 91       	pop	r28
 360:	ff 90       	pop	r15
 362:	ef 90       	pop	r14
 364:	df 90       	pop	r13
 366:	cf 90       	pop	r12
 368:	08 95       	ret

0000036a <init>:
 36a:	78 94       	sei
 36c:	84 b5       	in	r24, 0x24	; 36
 36e:	82 60       	ori	r24, 0x02	; 2
 370:	84 bd       	out	0x24, r24	; 36
 372:	84 b5       	in	r24, 0x24	; 36
 374:	81 60       	ori	r24, 0x01	; 1
 376:	84 bd       	out	0x24, r24	; 36
 378:	85 b5       	in	r24, 0x25	; 37
 37a:	82 60       	ori	r24, 0x02	; 2
 37c:	85 bd       	out	0x25, r24	; 37
 37e:	85 b5       	in	r24, 0x25	; 37
 380:	81 60       	ori	r24, 0x01	; 1
 382:	85 bd       	out	0x25, r24	; 37
 384:	ee e6       	ldi	r30, 0x6E	; 110
 386:	f0 e0       	ldi	r31, 0x00	; 0
 388:	80 81       	ld	r24, Z
 38a:	81 60       	ori	r24, 0x01	; 1
 38c:	80 83       	st	Z, r24
 38e:	e1 e8       	ldi	r30, 0x81	; 129
 390:	f0 e0       	ldi	r31, 0x00	; 0
 392:	10 82       	st	Z, r1
 394:	80 81       	ld	r24, Z
 396:	82 60       	ori	r24, 0x02	; 2
 398:	80 83       	st	Z, r24
 39a:	80 81       	ld	r24, Z
 39c:	81 60       	ori	r24, 0x01	; 1
 39e:	80 83       	st	Z, r24
 3a0:	e0 e8       	ldi	r30, 0x80	; 128
 3a2:	f0 e0       	ldi	r31, 0x00	; 0
 3a4:	80 81       	ld	r24, Z
 3a6:	81 60       	ori	r24, 0x01	; 1
 3a8:	80 83       	st	Z, r24
 3aa:	e1 eb       	ldi	r30, 0xB1	; 177
 3ac:	f0 e0       	ldi	r31, 0x00	; 0
 3ae:	80 81       	ld	r24, Z
 3b0:	84 60       	ori	r24, 0x04	; 4
 3b2:	80 83       	st	Z, r24
 3b4:	e0 eb       	ldi	r30, 0xB0	; 176
 3b6:	f0 e0       	ldi	r31, 0x00	; 0
 3b8:	80 81       	ld	r24, Z
 3ba:	81 60       	ori	r24, 0x01	; 1
 3bc:	80 83       	st	Z, r24
 3be:	ea e7       	ldi	r30, 0x7A	; 122
 3c0:	f0 e0       	ldi	r31, 0x00	; 0
 3c2:	80 81       	ld	r24, Z
 3c4:	84 60       	ori	r24, 0x04	; 4
 3c6:	80 83       	st	Z, r24
 3c8:	80 81       	ld	r24, Z
 3ca:	82 60       	ori	r24, 0x02	; 2
 3cc:	80 83       	st	Z, r24
 3ce:	80 81       	ld	r24, Z
 3d0:	81 60       	ori	r24, 0x01	; 1
 3d2:	80 83       	st	Z, r24
 3d4:	80 81       	ld	r24, Z
 3d6:	80 68       	ori	r24, 0x80	; 128
 3d8:	80 83       	st	Z, r24
 3da:	10 92 c1 00 	sts	0x00C1, r1
 3de:	08 95       	ret

000003e0 <initVariant>:
 3e0:	08 95       	ret

000003e2 <main>:
 3e2:	0e 94 b5 01 	call	0x36a	; 0x36a <init>
 3e6:	0e 94 f0 01 	call	0x3e0	; 0x3e0 <initVariant>
 3ea:	0e 94 70 00 	call	0xe0	; 0xe0 <setup>
 3ee:	c0 e0       	ldi	r28, 0x00	; 0
 3f0:	d0 e0       	ldi	r29, 0x00	; 0
 3f2:	0e 94 74 00 	call	0xe8	; 0xe8 <loop>
 3f6:	20 97       	sbiw	r28, 0x00	; 0
 3f8:	e1 f3       	breq	.-8      	; 0x3f2 <main+0x10>
 3fa:	0e 94 00 00 	call	0	; 0x0 <__vectors>
 3fe:	f9 cf       	rjmp	.-14     	; 0x3f2 <main+0x10>

00000400 <yield>:
 400:	08 95       	ret

00000402 <_exit>:
 402:	f8 94       	cli

00000404 <__stop_program>:
 404:	ff cf       	rjmp	.-2      	; 0x404 <__stop_program>
