
sketch_feb17a.cpp.o:     file format elf32-avr


Disassembly of section .text.setup:

00000000 <setup>:
   0:	61 e0       	ldi	r22, 0x01	; 1
   2:	80 91 00 00 	lds	r24, 0x0000
   6:	0c 94 00 00 	jmp	0	; 0x0 <setup>

Disassembly of section .text.loop:

00000000 <loop>:
   0:	cf 93       	push	r28
   2:	df 93       	push	r29
   4:	c0 e0       	ldi	r28, 0x00	; 0
   6:	d0 e0       	ldi	r29, 0x00	; 0
   8:	61 e0       	ldi	r22, 0x01	; 1
   a:	88 81       	ld	r24, Y
   c:	0e 94 00 00 	call	0	; 0x0 <loop>
  10:	68 ee       	ldi	r22, 0xE8	; 232
  12:	73 e0       	ldi	r23, 0x03	; 3
  14:	80 e0       	ldi	r24, 0x00	; 0
  16:	90 e0       	ldi	r25, 0x00	; 0
  18:	0e 94 00 00 	call	0	; 0x0 <loop>
  1c:	60 e0       	ldi	r22, 0x00	; 0
  1e:	88 81       	ld	r24, Y
  20:	0e 94 00 00 	call	0	; 0x0 <loop>
  24:	68 ee       	ldi	r22, 0xE8	; 232
  26:	73 e0       	ldi	r23, 0x03	; 3
  28:	80 e0       	ldi	r24, 0x00	; 0
  2a:	90 e0       	ldi	r25, 0x00	; 0
  2c:	df 91       	pop	r29
  2e:	cf 91       	pop	r28
  30:	0c 94 00 00 	jmp	0	; 0x0 <loop>

Disassembly of section .data.led:

00000000 <led>:
   0:	0d 00       	.word	0x000d	; ????

Disassembly of section .debug_info:

00000000 <.debug_info>:
   0:	28 02       	muls	r18, r24
   2:	00 00       	nop
   4:	02 00       	.word	0x0002	; ????
   6:	00 00       	nop
   8:	00 00       	nop
   a:	04 01       	movw	r0, r8
   c:	00 00       	nop
   e:	00 00       	nop
  10:	04 00       	.word	0x0004	; ????
	...
  26:	00 00       	nop
  28:	00 02       	muls	r16, r16
  2a:	02 07       	cpc	r16, r18
  2c:	00 00       	nop
  2e:	00 00       	nop
  30:	03 02       	muls	r16, r19
  32:	05 69       	ori	r16, 0x95	; 149
  34:	6e 74       	andi	r22, 0x4E	; 78
  36:	00 02       	muls	r16, r16
  38:	04 05       	cpc	r16, r4
  3a:	00 00       	nop
  3c:	00 00       	nop
  3e:	02 01       	movw	r0, r4
  40:	06 00       	.word	0x0006	; ????
  42:	00 00       	nop
  44:	00 04       	cpc	r0, r0
  46:	00 00       	nop
  48:	00 00       	nop
  4a:	04 7a       	andi	r16, 0xA4	; 164
  4c:	50 00       	.word	0x0050	; ????
  4e:	00 00       	nop
  50:	02 01       	movw	r0, r4
  52:	08 00       	.word	0x0008	; ????
  54:	00 00       	nop
  56:	00 02       	muls	r16, r16
  58:	04 07       	cpc	r16, r20
  5a:	00 00       	nop
  5c:	00 00       	nop
  5e:	02 08       	sbc	r0, r2
  60:	05 00       	.word	0x0005	; ????
  62:	00 00       	nop
  64:	00 02       	muls	r16, r16
  66:	08 07       	cpc	r16, r24
  68:	00 00       	nop
  6a:	00 00       	nop
  6c:	02 01       	movw	r0, r4
  6e:	02 00       	.word	0x0002	; ????
  70:	00 00       	nop
  72:	00 02       	muls	r16, r16
  74:	01 06       	cpc	r0, r17
  76:	00 00       	nop
  78:	00 00       	nop
  7a:	02 04       	cpc	r0, r2
  7c:	04 00       	.word	0x0004	; ????
  7e:	00 00       	nop
  80:	00 02       	muls	r16, r16
  82:	04 04       	cpc	r0, r4
  84:	00 00       	nop
  86:	00 00       	nop
  88:	02 02       	muls	r16, r18
  8a:	07 00       	.word	0x0007	; ????
  8c:	00 00       	nop
  8e:	00 05       	cpc	r16, r0
  90:	01 00       	.word	0x0001	; ????
  92:	00 00       	nop
  94:	00 01       	movw	r0, r0
  96:	03 00       	.word	0x0003	; ????
  98:	00 00       	nop
  9a:	00 00       	nop
  9c:	00 00       	nop
  9e:	00 03       	mulsu	r16, r16
  a0:	92 20       	and	r9, r2
  a2:	02 01       	movw	r0, r4
  a4:	b9 00       	.word	0x00b9	; ????
  a6:	00 00       	nop
  a8:	06 00       	.word	0x0006	; ????
  aa:	00 00       	nop
  ac:	00 01       	movw	r0, r0
  ae:	ec 01       	movw	r28, r24
  b0:	00 00       	nop
  b2:	07 01       	movw	r0, r14
  b4:	66 01       	movw	r12, r12
  b6:	31 00       	.word	0x0031	; ????
  b8:	00 08       	sbc	r0, r0
  ba:	01 00       	.word	0x0001	; ????
  bc:	00 00       	nop
  be:	00 01       	movw	r0, r0
  c0:	07 00       	.word	0x0007	; ????
	...
  ca:	00 00       	nop
  cc:	00 01       	movw	r0, r0
  ce:	36 01       	movw	r6, r12
  d0:	00 00       	nop
  d2:	09 00       	.word	0x0009	; ????
  d4:	00 00       	nop
  d6:	00 04       	cpc	r0, r0
  d8:	02 00       	.word	0x0002	; ????
  da:	00 e5       	ldi	r16, 0x50	; 80
  dc:	00 00       	nop
  de:	00 07       	cpc	r16, r16
  e0:	01 66       	ori	r16, 0x61	; 97
  e2:	01 31       	cpi	r16, 0x11	; 17
  e4:	00 09       	sbc	r16, r0
  e6:	00 00       	nop
  e8:	00 00       	nop
  ea:	1c 02       	muls	r17, r28
  ec:	00 00       	nop
  ee:	05 01       	movw	r0, r10
  f0:	00 00       	nop
  f2:	07 0c       	add	r0, r7
  f4:	66 93       	lac	Z, r22
  f6:	01 67       	ori	r16, 0x71	; 113
  f8:	93 01       	movw	r18, r6
  fa:	68 93       	.word	0x9368	; ????
  fc:	01 69       	ori	r16, 0x91	; 145
  fe:	93 01       	movw	r18, r6
 100:	03 0a       	sbc	r0, r19
 102:	e8 03       	fmulsu	r22, r16
 104:	00 09       	sbc	r16, r0
 106:	00 00       	nop
 108:	00 00       	nop
 10a:	04 02       	muls	r16, r20
 10c:	00 00       	nop
 10e:	18 01       	movw	r2, r16
 110:	00 00       	nop
 112:	07 01       	movw	r0, r14
 114:	66 01       	movw	r12, r12
 116:	30 00       	.word	0x0030	; ????
 118:	06 00       	.word	0x0006	; ????
 11a:	00 00       	nop
 11c:	00 01       	movw	r0, r0
 11e:	1c 02       	muls	r17, r28
 120:	00 00       	nop
 122:	07 0c       	add	r0, r7
 124:	66 93       	lac	Z, r22
 126:	01 67       	ori	r16, 0x71	; 113
 128:	93 01       	movw	r18, r6
 12a:	68 93       	.word	0x9368	; ????
 12c:	01 69       	ori	r16, 0x91	; 145
 12e:	93 01       	movw	r18, r6
 130:	03 0a       	sbc	r0, r19
 132:	e8 03       	fmulsu	r22, r16
 134:	00 00       	nop
 136:	0a 53       	subi	r16, 0x3A	; 58
 138:	53 00       	.word	0x0053	; ????
 13a:	02 28       	or	r0, r2
 13c:	41 01       	movw	r8, r2
 13e:	00 00       	nop
 140:	0a 0b       	sbc	r16, r26
 142:	45 00       	.word	0x0045	; ????
 144:	00 00       	nop
 146:	0c 00       	.word	0x000c	; ????
 148:	00 00       	nop
 14a:	00 02       	muls	r16, r16
 14c:	29 41       	sbci	r18, 0x19	; 25
 14e:	01 00       	.word	0x0001	; ????
 150:	00 0b       	sbc	r16, r16
 152:	0c 00       	.word	0x000c	; ????
 154:	00 00       	nop
 156:	00 02       	muls	r16, r16
 158:	2a 41       	sbci	r18, 0x1A	; 26
 15a:	01 00       	.word	0x0001	; ????
 15c:	00 0c       	add	r0, r0
 15e:	0a 53       	subi	r16, 0x3A	; 58
 160:	43 4b       	sbci	r20, 0xB3	; 179
 162:	00 02       	muls	r16, r16
 164:	2b 41       	sbci	r18, 0x1B	; 27
 166:	01 00       	.word	0x0001	; ????
 168:	00 0d       	add	r16, r0
 16a:	0a 53       	subi	r16, 0x3A	; 58
 16c:	44 41       	sbci	r20, 0x14	; 20
 16e:	00 02       	muls	r16, r16
 170:	2d 41       	sbci	r18, 0x1D	; 29
 172:	01 00       	.word	0x0001	; ????
 174:	00 12       	cpse	r0, r16
 176:	0a 53       	subi	r16, 0x3A	; 58
 178:	43 4c       	sbci	r20, 0xC3	; 195
 17a:	00 02       	muls	r16, r16
 17c:	2e 41       	sbci	r18, 0x1E	; 30
 17e:	01 00       	.word	0x0001	; ????
 180:	00 13       	cpse	r16, r16
 182:	0a 41       	sbci	r16, 0x1A	; 26
 184:	30 00       	.word	0x0030	; ????
 186:	02 31       	cpi	r16, 0x12	; 18
 188:	41 01       	movw	r8, r2
 18a:	00 00       	nop
 18c:	0e 0a       	sbc	r0, r30
 18e:	41 31       	cpi	r20, 0x11	; 17
 190:	00 02       	muls	r16, r16
 192:	32 41       	sbci	r19, 0x12	; 18
 194:	01 00       	.word	0x0001	; ????
 196:	00 0f       	add	r16, r16
 198:	0a 41       	sbci	r16, 0x1A	; 26
 19a:	32 00       	.word	0x0032	; ????
 19c:	02 33       	cpi	r16, 0x32	; 50
 19e:	41 01       	movw	r8, r2
 1a0:	00 00       	nop
 1a2:	10 0a       	sbc	r1, r16
 1a4:	41 33       	cpi	r20, 0x31	; 49
 1a6:	00 02       	muls	r16, r16
 1a8:	34 41       	sbci	r19, 0x14	; 20
 1aa:	01 00       	.word	0x0001	; ????
 1ac:	00 11       	cpse	r16, r0
 1ae:	0a 41       	sbci	r16, 0x1A	; 26
 1b0:	34 00       	.word	0x0034	; ????
 1b2:	02 35       	cpi	r16, 0x52	; 82
 1b4:	41 01       	movw	r8, r2
 1b6:	00 00       	nop
 1b8:	12 0a       	sbc	r1, r18
 1ba:	41 35       	cpi	r20, 0x51	; 81
 1bc:	00 02       	muls	r16, r16
 1be:	36 41       	sbci	r19, 0x16	; 22
 1c0:	01 00       	.word	0x0001	; ????
 1c2:	00 13       	cpse	r16, r16
 1c4:	0a 41       	sbci	r16, 0x1A	; 26
 1c6:	36 00       	.word	0x0036	; ????
 1c8:	02 37       	cpi	r16, 0x72	; 114
 1ca:	41 01       	movw	r8, r2
 1cc:	00 00       	nop
 1ce:	14 0a       	sbc	r1, r20
 1d0:	41 37       	cpi	r20, 0x71	; 113
 1d2:	00 02       	muls	r16, r16
 1d4:	38 41       	sbci	r19, 0x18	; 24
 1d6:	01 00       	.word	0x0001	; ????
 1d8:	00 15       	cp	r16, r0
 1da:	0d 6c       	ori	r16, 0xCD	; 205
 1dc:	65 64       	ori	r22, 0x45	; 69
 1de:	00 01       	movw	r0, r0
 1e0:	01 30       	cpi	r16, 0x01	; 1
 1e2:	00 00       	nop
 1e4:	00 01       	movw	r0, r0
 1e6:	05 03       	mulsu	r16, r21
 1e8:	00 00       	nop
 1ea:	00 00       	nop
 1ec:	0e 01       	movw	r0, r28
 1ee:	00 00       	nop
 1f0:	00 00       	nop
 1f2:	03 7d       	andi	r16, 0xD3	; 211
 1f4:	01 04       	cpc	r0, r1
 1f6:	02 00       	.word	0x0002	; ????
 1f8:	00 0f       	add	r16, r16
 1fa:	45 00       	.word	0x0045	; ????
 1fc:	00 00       	nop
 1fe:	0f 45       	sbci	r16, 0x5F	; 95
 200:	00 00       	nop
 202:	00 00       	nop
 204:	0e 01       	movw	r0, r28
 206:	00 00       	nop
 208:	00 00       	nop
 20a:	03 7e       	andi	r16, 0xE3	; 227
 20c:	01 1c       	adc	r0, r1
 20e:	02 00       	.word	0x0002	; ????
 210:	00 0f       	add	r16, r16
 212:	45 00       	.word	0x0045	; ????
 214:	00 00       	nop
 216:	0f 45       	sbci	r16, 0x5F	; 95
 218:	00 00       	nop
 21a:	00 00       	nop
 21c:	10 01       	movw	r2, r0
 21e:	00 00       	nop
 220:	00 00       	nop
 222:	03 86       	std	Z+11, r0	; 0x0b
 224:	01 0f       	add	r16, r17
 226:	57 00       	.word	0x0057	; ????
 228:	00 00       	nop
	...

Disassembly of section .debug_abbrev:

00000000 <.debug_abbrev>:
   0:	01 11       	cpse	r16, r1
   2:	01 25       	eor	r16, r1
   4:	0e 13       	cpse	r16, r30
   6:	0b 03       	fmul	r16, r19
   8:	0e 1b       	sub	r16, r30
   a:	0e 55       	subi	r16, 0x5E	; 94
   c:	06 11       	cpse	r16, r6
   e:	01 52       	subi	r16, 0x21	; 33
  10:	01 10       	cpse	r0, r1
  12:	06 00       	.word	0x0006	; ????
  14:	00 02       	muls	r16, r16
  16:	24 00       	.word	0x0024	; ????
  18:	0b 0b       	sbc	r16, r27
  1a:	3e 0b       	sbc	r19, r30
  1c:	03 0e       	add	r0, r19
  1e:	00 00       	nop
  20:	03 24       	eor	r0, r3
  22:	00 0b       	sbc	r16, r16
  24:	0b 3e       	cpi	r16, 0xEB	; 235
  26:	0b 03       	fmul	r16, r19
  28:	08 00       	.word	0x0008	; ????
  2a:	00 04       	cpc	r0, r0
  2c:	16 00       	.word	0x0016	; ????
  2e:	03 0e       	add	r0, r19
  30:	3a 0b       	sbc	r19, r26
  32:	3b 0b       	sbc	r19, r27
  34:	49 13       	cpse	r20, r25
  36:	00 00       	nop
  38:	05 2e       	mov	r0, r21
  3a:	01 3f       	cpi	r16, 0xF1	; 241
  3c:	0c 03       	fmul	r16, r20
  3e:	0e 3a       	cpi	r16, 0xAE	; 174
  40:	0b 3b       	cpi	r16, 0xBB	; 187
  42:	0b 11       	cpse	r16, r11
  44:	01 12       	cpse	r0, r17
  46:	01 40       	sbci	r16, 0x01	; 1
  48:	0a 97       	sbiw	r24, 0x0a	; 10
  4a:	42 0c       	add	r4, r2
  4c:	01 13       	cpse	r16, r17
  4e:	00 00       	nop
  50:	06 89       	ldd	r16, Z+22	; 0x16
  52:	82 01       	movw	r16, r4
  54:	01 11       	cpse	r16, r1
  56:	01 95       	neg	r16
  58:	42 0c       	add	r4, r2
  5a:	31 13       	cpse	r19, r17
  5c:	00 00       	nop
  5e:	07 8a       	std	Z+23, r0	; 0x17
  60:	82 01       	movw	r16, r4
  62:	00 02       	muls	r16, r16
  64:	0a 91       	ld	r16, -Y
  66:	42 0a       	sbc	r4, r18
  68:	00 00       	nop
  6a:	08 2e       	mov	r0, r24
  6c:	01 3f       	cpi	r16, 0xF1	; 241
  6e:	0c 03       	fmul	r16, r20
  70:	0e 3a       	cpi	r16, 0xAE	; 174
  72:	0b 3b       	cpi	r16, 0xBB	; 187
  74:	0b 11       	cpse	r16, r11
  76:	01 12       	cpse	r0, r17
  78:	01 40       	sbci	r16, 0x01	; 1
  7a:	06 97       	sbiw	r24, 0x06	; 6
  7c:	42 0c       	add	r4, r2
  7e:	01 13       	cpse	r16, r17
  80:	00 00       	nop
  82:	09 89       	ldd	r16, Y+17	; 0x11
  84:	82 01       	movw	r16, r4
  86:	01 11       	cpse	r16, r1
  88:	01 31       	cpi	r16, 0x11	; 17
  8a:	13 01       	movw	r2, r6
  8c:	13 00       	.word	0x0013	; ????
  8e:	00 0a       	sbc	r0, r16
  90:	34 00       	.word	0x0034	; ????
  92:	03 08       	sbc	r0, r3
  94:	3a 0b       	sbc	r19, r26
  96:	3b 0b       	sbc	r19, r27
  98:	49 13       	cpse	r20, r25
  9a:	1c 0b       	sbc	r17, r28
  9c:	00 00       	nop
  9e:	0b 26       	eor	r0, r27
  a0:	00 49       	sbci	r16, 0x90	; 144
  a2:	13 00       	.word	0x0013	; ????
  a4:	00 0c       	add	r0, r0
  a6:	34 00       	.word	0x0034	; ????
  a8:	03 0e       	add	r0, r19
  aa:	3a 0b       	sbc	r19, r26
  ac:	3b 0b       	sbc	r19, r27
  ae:	49 13       	cpse	r20, r25
  b0:	1c 0b       	sbc	r17, r28
  b2:	00 00       	nop
  b4:	0d 34       	cpi	r16, 0x4D	; 77
  b6:	00 03       	mulsu	r16, r16
  b8:	08 3a       	cpi	r16, 0xA8	; 168
  ba:	0b 3b       	cpi	r16, 0xBB	; 187
  bc:	0b 49       	sbci	r16, 0x9B	; 155
  be:	13 3f       	cpi	r17, 0xF3	; 243
  c0:	0c 02       	muls	r16, r28
  c2:	0a 00       	.word	0x000a	; ????
  c4:	00 0e       	add	r0, r16
  c6:	2e 01       	movw	r4, r28
  c8:	3f 0c       	add	r3, r15
  ca:	03 0e       	add	r0, r19
  cc:	3a 0b       	sbc	r19, r26
  ce:	3b 0b       	sbc	r19, r27
  d0:	3c 0c       	add	r3, r12
  d2:	01 13       	cpse	r16, r17
  d4:	00 00       	nop
  d6:	0f 05       	cpc	r16, r15
  d8:	00 49       	sbci	r16, 0x90	; 144
  da:	13 00       	.word	0x0013	; ????
  dc:	00 10       	cpse	r0, r0
  de:	2e 01       	movw	r4, r28
  e0:	3f 0c       	add	r3, r15
  e2:	03 0e       	add	r0, r19
  e4:	3a 0b       	sbc	r19, r26
  e6:	3b 0b       	sbc	r19, r27
  e8:	3c 0c       	add	r3, r12
  ea:	00 00       	nop
	...

Disassembly of section .debug_loc:

00000000 <.debug_loc>:
	...
   8:	03 00       	.word	0x0003	; ????
   a:	92 20       	and	r9, r2
   c:	02 00       	.word	0x0002	; ????
   e:	00 00       	nop
  10:	00 00       	nop
  12:	00 00       	nop
  14:	00 03       	mulsu	r16, r16
  16:	00 92 20 03 	sts	0x0320, r0
	...
  22:	03 00       	.word	0x0003	; ????
  24:	92 20       	and	r9, r2
  26:	04 00       	.word	0x0004	; ????
  28:	00 00       	nop
  2a:	00 00       	nop
  2c:	00 00       	nop
	...

Disassembly of section .debug_aranges:

00000000 <.debug_aranges>:
   0:	24 00       	.word	0x0024	; ????
   2:	00 00       	nop
   4:	02 00       	.word	0x0002	; ????
   6:	00 00       	nop
   8:	00 00       	nop
   a:	04 00       	.word	0x0004	; ????
	...
  14:	0a 00       	.word	0x000a	; ????
  16:	00 00       	nop
  18:	00 00       	nop
  1a:	00 00       	nop
  1c:	34 00       	.word	0x0034	; ????
	...

Disassembly of section .debug_ranges:

00000000 <.debug_ranges>:
	...

Disassembly of section .debug_line:

00000000 <.debug_line>:
   0:	64 01       	movw	r12, r8
   2:	00 00       	nop
   4:	02 00       	.word	0x0002	; ????
   6:	3d 01       	movw	r6, r26
   8:	00 00       	nop
   a:	02 01       	movw	r0, r4
   c:	fb 0e       	add	r15, r27
   e:	0a 00       	.word	0x000a	; ????
  10:	01 01       	movw	r0, r2
  12:	01 01       	movw	r0, r2
  14:	00 00       	nop
  16:	00 01       	movw	r0, r0
  18:	2f 68       	ori	r18, 0x8F	; 143
  1a:	6f 6d       	ori	r22, 0xDF	; 223
  1c:	65 2f       	mov	r22, r21
  1e:	64 65       	ori	r22, 0x54	; 84
  20:	6c 76       	andi	r22, 0x6C	; 108
  22:	65 72       	andi	r22, 0x25	; 37
  24:	2f d0       	rcall	.+94     	; 0x84 <.debug_line+0x84>
  26:	97 d0       	rcall	.+302    	; 0x156 <.debug_line+0x156>
  28:	b0 d0       	rcall	.+352    	; 0x18a <__SREG__+0x14b>
  2a:	b3 d1       	rcall	.+870    	; 0x392 <__SREG__+0x353>
  2c:	80 d1       	rcall	.+768    	; 0x32e <__SREG__+0x2ef>
  2e:	83 d0       	rcall	.+262    	; 0x136 <.debug_line+0x136>
  30:	b7 d0       	rcall	.+366    	; 0x1a0 <__SREG__+0x161>
  32:	ba d0       	rcall	.+372    	; 0x1a8 <__SREG__+0x169>
  34:	b8 2f       	mov	r27, r24
  36:	61 72       	andi	r22, 0x21	; 33
  38:	64 75       	andi	r22, 0x54	; 84
  3a:	69 6e       	ori	r22, 0xE9	; 233
  3c:	6f 2d       	mov	r22, r15
  3e:	31 2e       	mov	r3, r17
  40:	36 2e       	mov	r3, r22
  42:	30 2f       	mov	r19, r16
  44:	68 61       	ori	r22, 0x18	; 24
  46:	72 64       	ori	r23, 0x42	; 66
  48:	77 61       	ori	r23, 0x17	; 23
  4a:	72 65       	ori	r23, 0x52	; 82
  4c:	2f 61       	ori	r18, 0x1F	; 31
  4e:	72 64       	ori	r23, 0x42	; 66
  50:	75 69       	ori	r23, 0x95	; 149
  52:	6e 6f       	ori	r22, 0xFE	; 254
  54:	2f 61       	ori	r18, 0x1F	; 31
  56:	76 72       	andi	r23, 0x26	; 38
  58:	2f 76       	andi	r18, 0x6F	; 111
  5a:	61 72       	andi	r22, 0x21	; 33
  5c:	69 61       	ori	r22, 0x19	; 25
  5e:	6e 74       	andi	r22, 0x4E	; 78
  60:	73 2f       	mov	r23, r19
  62:	73 74       	andi	r23, 0x43	; 67
  64:	61 6e       	ori	r22, 0xE1	; 225
  66:	64 61       	ori	r22, 0x14	; 20
  68:	72 64       	ori	r23, 0x42	; 66
  6a:	00 2f       	mov	r16, r16
  6c:	68 6f       	ori	r22, 0xF8	; 248
  6e:	6d 65       	ori	r22, 0x5D	; 93
  70:	2f 64       	ori	r18, 0x4F	; 79
  72:	65 6c       	ori	r22, 0xC5	; 197
  74:	76 65       	ori	r23, 0x56	; 86
  76:	72 2f       	mov	r23, r18
  78:	d0 97       	sbiw	r26, 0x30	; 48
  7a:	d0 b0       	in	r13, 0x00	; 0
  7c:	d0 b3       	in	r29, 0x10	; 16
  7e:	d1 80       	ldd	r13, Z+1	; 0x01
  80:	d1 83       	std	Z+1, r29	; 0x01
  82:	d0 b7       	in	r29, 0x30	; 48
  84:	d0 ba       	out	0x10, r13	; 16
  86:	d0 b8       	out	0x00, r13	; 0
  88:	2f 61       	ori	r18, 0x1F	; 31
  8a:	72 64       	ori	r23, 0x42	; 66
  8c:	75 69       	ori	r23, 0x95	; 149
  8e:	6e 6f       	ori	r22, 0xFE	; 254
  90:	2d 31       	cpi	r18, 0x1D	; 29
  92:	2e 36       	cpi	r18, 0x6E	; 110
  94:	2e 30       	cpi	r18, 0x0E	; 14
  96:	2f 68       	ori	r18, 0x8F	; 143
  98:	61 72       	andi	r22, 0x21	; 33
  9a:	64 77       	andi	r22, 0x74	; 116
  9c:	61 72       	andi	r22, 0x21	; 33
  9e:	65 2f       	mov	r22, r21
  a0:	61 72       	andi	r22, 0x21	; 33
  a2:	64 75       	andi	r22, 0x54	; 84
  a4:	69 6e       	ori	r22, 0xE9	; 233
  a6:	6f 2f       	mov	r22, r31
  a8:	61 76       	andi	r22, 0x61	; 97
  aa:	72 2f       	mov	r23, r18
  ac:	63 6f       	ori	r22, 0xF3	; 243
  ae:	72 65       	ori	r23, 0x52	; 82
  b0:	73 2f       	mov	r23, r19
  b2:	61 72       	andi	r22, 0x21	; 33
  b4:	64 75       	andi	r22, 0x54	; 84
  b6:	69 6e       	ori	r22, 0xE9	; 233
  b8:	6f 00       	.word	0x006f	; ????
  ba:	2f 68       	ori	r18, 0x8F	; 143
  bc:	6f 6d       	ori	r22, 0xDF	; 223
  be:	65 2f       	mov	r22, r21
  c0:	64 65       	ori	r22, 0x54	; 84
  c2:	6c 76       	andi	r22, 0x6C	; 108
  c4:	65 72       	andi	r22, 0x25	; 37
  c6:	2f d0       	rcall	.+94     	; 0x126 <.debug_line+0x126>
  c8:	97 d0       	rcall	.+302    	; 0x1f8 <__SREG__+0x1b9>
  ca:	b0 d0       	rcall	.+352    	; 0x22c <__SREG__+0x1ed>
  cc:	b3 d1       	rcall	.+870    	; 0x434 <__SREG__+0x3f5>
  ce:	80 d1       	rcall	.+768    	; 0x3d0 <__SREG__+0x391>
  d0:	83 d0       	rcall	.+262    	; 0x1d8 <__SREG__+0x199>
  d2:	b7 d0       	rcall	.+366    	; 0x242 <__SREG__+0x203>
  d4:	ba d0       	rcall	.+372    	; 0x24a <__SREG__+0x20b>
  d6:	b8 2f       	mov	r27, r24
  d8:	61 72       	andi	r22, 0x21	; 33
  da:	64 75       	andi	r22, 0x54	; 84
  dc:	69 6e       	ori	r22, 0xE9	; 233
  de:	6f 2d       	mov	r22, r15
  e0:	31 2e       	mov	r3, r17
  e2:	36 2e       	mov	r3, r22
  e4:	30 2f       	mov	r19, r16
  e6:	68 61       	ori	r22, 0x18	; 24
  e8:	72 64       	ori	r23, 0x42	; 66
  ea:	77 61       	ori	r23, 0x17	; 23
  ec:	72 65       	ori	r23, 0x52	; 82
  ee:	2f 74       	andi	r18, 0x4F	; 79
  f0:	6f 6f       	ori	r22, 0xFF	; 255
  f2:	6c 73       	andi	r22, 0x3C	; 60
  f4:	2f 61       	ori	r18, 0x1F	; 31
  f6:	76 72       	andi	r23, 0x26	; 38
  f8:	2f 61       	ori	r18, 0x1F	; 31
  fa:	76 72       	andi	r23, 0x26	; 38
  fc:	2f 69       	ori	r18, 0x9F	; 159
  fe:	6e 63       	ori	r22, 0x3E	; 62
 100:	6c 75       	andi	r22, 0x5C	; 92
 102:	64 65       	ori	r22, 0x54	; 84
 104:	00 00       	nop
 106:	73 6b       	ori	r23, 0xB3	; 179
 108:	65 74       	andi	r22, 0x45	; 69
 10a:	63 68       	ori	r22, 0x83	; 131
 10c:	5f 66       	ori	r21, 0x6F	; 111
 10e:	65 62       	ori	r22, 0x25	; 37
 110:	31 37       	cpi	r19, 0x71	; 113
 112:	61 2e       	mov	r6, r17
 114:	69 6e       	ori	r22, 0xE9	; 233
 116:	6f 00       	.word	0x006f	; ????
 118:	00 00       	nop
 11a:	00 70       	andi	r16, 0x00	; 0
 11c:	69 6e       	ori	r22, 0xE9	; 233
 11e:	73 5f       	subi	r23, 0xF3	; 243
 120:	61 72       	andi	r22, 0x21	; 33
 122:	64 75       	andi	r22, 0x54	; 84
 124:	69 6e       	ori	r22, 0xE9	; 233
 126:	6f 2e       	mov	r6, r31
 128:	68 00       	.word	0x0068	; ????
 12a:	01 00       	.word	0x0001	; ????
 12c:	00 41       	sbci	r16, 0x10	; 16
 12e:	72 64       	ori	r23, 0x42	; 66
 130:	75 69       	ori	r23, 0x95	; 149
 132:	6e 6f       	ori	r22, 0xFE	; 254
 134:	2e 68       	ori	r18, 0x8E	; 142
 136:	00 02       	muls	r16, r16
 138:	00 00       	nop
 13a:	73 74       	andi	r23, 0x43	; 67
 13c:	64 69       	ori	r22, 0x94	; 148
 13e:	6e 74       	andi	r22, 0x4E	; 78
 140:	2e 68       	ori	r18, 0x8E	; 142
 142:	00 03       	mulsu	r16, r16
 144:	00 00       	nop
 146:	00 00       	nop
 148:	05 02       	muls	r16, r21
 14a:	00 00       	nop
 14c:	00 00       	nop
 14e:	11 10       	cpse	r1, r1
 150:	02 05       	cpc	r16, r2
 152:	00 01       	movw	r0, r0
 154:	01 00       	.word	0x0001	; ????
 156:	05 02       	muls	r16, r21
 158:	00 00       	nop
 15a:	00 00       	nop
 15c:	15 2c       	mov	r1, r5
 15e:	64 64       	ori	r22, 0x44	; 68
 160:	48 48       	sbci	r20, 0x88	; 136
 162:	2a 02       	muls	r18, r26
 164:	02 00       	.word	0x0002	; ????
 166:	01 01       	movw	r0, r2

Disassembly of section .debug_str:

00000000 <.debug_str>:
   0:	73 65       	ori	r23, 0x53	; 83
   2:	74 75       	andi	r23, 0x54	; 84
   4:	70 00       	.word	0x0070	; ????
   6:	62 6f       	ori	r22, 0xF2	; 242
   8:	6f 6c       	ori	r22, 0xCF	; 207
   a:	00 64       	ori	r16, 0x40	; 64
   c:	69 67       	ori	r22, 0x79	; 121
   e:	69 74       	andi	r22, 0x49	; 73
  10:	61 6c       	ori	r22, 0xC1	; 193
  12:	57 72       	andi	r21, 0x27	; 39
  14:	69 74       	andi	r22, 0x49	; 73
  16:	65 00       	.word	0x0065	; ????
  18:	6c 6f       	ori	r22, 0xFC	; 252
  1a:	6f 70       	andi	r22, 0x0F	; 15
  1c:	00 66       	ori	r16, 0x60	; 96
  1e:	6c 6f       	ori	r22, 0xFC	; 252
  20:	61 74       	andi	r22, 0x41	; 65
  22:	00 6c       	ori	r16, 0xC0	; 192
  24:	6f 6e       	ori	r22, 0xEF	; 239
  26:	67 20       	and	r6, r7
  28:	6c 6f       	ori	r22, 0xFC	; 252
  2a:	6e 67       	ori	r22, 0x7E	; 126
  2c:	20 75       	andi	r18, 0x50	; 80
  2e:	6e 73       	andi	r22, 0x3E	; 62
  30:	69 67       	ori	r22, 0x79	; 121
  32:	6e 65       	ori	r22, 0x5E	; 94
  34:	64 20       	and	r6, r4
  36:	69 6e       	ori	r22, 0xE9	; 233
  38:	74 00       	.word	0x0074	; ????
  3a:	6c 6f       	ori	r22, 0xFC	; 252
  3c:	6e 67       	ori	r22, 0x7E	; 126
  3e:	20 75       	andi	r18, 0x50	; 80
  40:	6e 73       	andi	r22, 0x3E	; 62
  42:	69 67       	ori	r22, 0x79	; 121
  44:	6e 65       	ori	r22, 0x5E	; 94
  46:	64 20       	and	r6, r4
  48:	69 6e       	ori	r22, 0xE9	; 233
  4a:	74 00       	.word	0x0074	; ????
  4c:	73 68       	ori	r23, 0x83	; 131
  4e:	6f 72       	andi	r22, 0x2F	; 47
  50:	74 20       	and	r7, r4
  52:	75 6e       	ori	r23, 0xE5	; 229
  54:	73 69       	ori	r23, 0x93	; 147
  56:	67 6e       	ori	r22, 0xE7	; 231
  58:	65 64       	ori	r22, 0x45	; 69
  5a:	20 69       	ori	r18, 0x90	; 144
  5c:	6e 74       	andi	r22, 0x4E	; 78
  5e:	00 47       	sbci	r16, 0x70	; 112
  60:	4e 55       	subi	r20, 0x5E	; 94
  62:	20 43       	sbci	r18, 0x30	; 48
  64:	2b 2b       	or	r18, r27
  66:	20 34       	cpi	r18, 0x40	; 64
  68:	2e 38       	cpi	r18, 0x8E	; 142
  6a:	2e 31       	cpi	r18, 0x1E	; 30
  6c:	20 2d       	mov	r18, r0
  6e:	6d 6d       	ori	r22, 0xDD	; 221
  70:	63 75       	andi	r22, 0x53	; 83
  72:	3d 61       	ori	r19, 0x1D	; 29
  74:	74 6d       	ori	r23, 0xD4	; 212
  76:	65 67       	ori	r22, 0x75	; 117
  78:	61 33       	cpi	r22, 0x31	; 49
  7a:	32 38       	cpi	r19, 0x82	; 130
  7c:	70 20       	and	r7, r0
  7e:	2d 67       	ori	r18, 0x7D	; 125
  80:	20 2d       	mov	r18, r0
  82:	4f 73       	andi	r20, 0x3F	; 63
  84:	20 2d       	mov	r18, r0
  86:	66 66       	ori	r22, 0x66	; 102
  88:	75 6e       	ori	r23, 0xE5	; 229
  8a:	63 74       	andi	r22, 0x43	; 67
  8c:	69 6f       	ori	r22, 0xF9	; 249
  8e:	6e 2d       	mov	r22, r14
  90:	73 65       	ori	r23, 0x53	; 83
  92:	63 74       	andi	r22, 0x43	; 67
  94:	69 6f       	ori	r22, 0xF9	; 249
  96:	6e 73       	andi	r22, 0x3E	; 62
  98:	20 2d       	mov	r18, r0
  9a:	66 64       	ori	r22, 0x46	; 70
  9c:	61 74       	andi	r22, 0x41	; 65
  9e:	61 2d       	mov	r22, r1
  a0:	73 65       	ori	r23, 0x53	; 83
  a2:	63 74       	andi	r22, 0x43	; 67
  a4:	69 6f       	ori	r22, 0xF9	; 249
  a6:	6e 73       	andi	r22, 0x3E	; 62
  a8:	20 2d       	mov	r18, r0
  aa:	66 6e       	ori	r22, 0xE6	; 230
  ac:	6f 2d       	mov	r22, r15
  ae:	74 68       	ori	r23, 0x84	; 132
  b0:	72 65       	ori	r23, 0x52	; 82
  b2:	61 64       	ori	r22, 0x41	; 65
  b4:	73 61       	ori	r23, 0x13	; 19
  b6:	66 65       	ori	r22, 0x56	; 86
  b8:	2d 73       	andi	r18, 0x3D	; 61
  ba:	74 61       	ori	r23, 0x14	; 20
  bc:	74 69       	ori	r23, 0x94	; 148
  be:	63 73       	andi	r22, 0x33	; 51
  c0:	20 2d       	mov	r18, r0
  c2:	66 6e       	ori	r22, 0xE6	; 230
  c4:	6f 2d       	mov	r22, r15
  c6:	72 74       	andi	r23, 0x42	; 66
  c8:	74 69       	ori	r23, 0x94	; 148
  ca:	20 2d       	mov	r18, r0
  cc:	66 6e       	ori	r22, 0xE6	; 230
  ce:	6f 2d       	mov	r22, r15
  d0:	65 6e       	ori	r22, 0xE5	; 229
  d2:	66 6f       	ori	r22, 0xF6	; 246
  d4:	72 63       	ori	r23, 0x32	; 50
  d6:	65 2d       	mov	r22, r5
  d8:	65 68       	ori	r22, 0x85	; 133
  da:	2d 73       	andi	r18, 0x3D	; 61
  dc:	70 65       	ori	r23, 0x50	; 80
  de:	63 73       	andi	r22, 0x33	; 51
  e0:	20 2d       	mov	r18, r0
  e2:	66 6e       	ori	r22, 0xE6	; 230
  e4:	6f 2d       	mov	r22, r15
  e6:	65 78       	andi	r22, 0x85	; 133
  e8:	63 65       	ori	r22, 0x53	; 83
  ea:	70 74       	andi	r23, 0x40	; 64
  ec:	69 6f       	ori	r22, 0xF9	; 249
  ee:	6e 73       	andi	r22, 0x3E	; 62
  f0:	00 70       	andi	r16, 0x00	; 0
  f2:	69 6e       	ori	r22, 0xE9	; 233
  f4:	4d 6f       	ori	r20, 0xFD	; 253
  f6:	64 65       	ori	r22, 0x54	; 84
  f8:	00 75       	andi	r16, 0x50	; 80
  fa:	6e 73       	andi	r22, 0x3E	; 62
  fc:	69 67       	ori	r22, 0x79	; 121
  fe:	6e 65       	ori	r22, 0x5E	; 94
 100:	64 20       	and	r6, r4
 102:	63 68       	ori	r22, 0x83	; 131
 104:	61 72       	andi	r22, 0x21	; 33
 106:	00 64       	ori	r16, 0x40	; 64
 108:	6f 75       	andi	r22, 0x5F	; 95
 10a:	62 6c       	ori	r22, 0xC2	; 194
 10c:	65 00       	.word	0x0065	; ????
 10e:	4d 49       	sbci	r20, 0x9D	; 157
 110:	53 4f       	sbci	r21, 0xF3	; 243
 112:	00 4d       	sbci	r16, 0xD0	; 208
 114:	4f 53       	subi	r20, 0x3F	; 63
 116:	49 00       	.word	0x0049	; ????
 118:	75 6e       	ori	r23, 0xE5	; 229
 11a:	73 69       	ori	r23, 0x93	; 147
 11c:	67 6e       	ori	r22, 0xE7	; 231
 11e:	65 64       	ori	r22, 0x45	; 69
 120:	20 69       	ori	r18, 0x90	; 144
 122:	6e 74       	andi	r22, 0x4E	; 78
 124:	00 2f       	mov	r16, r16
 126:	74 6d       	ori	r23, 0xD4	; 212
 128:	70 2f       	mov	r23, r16
 12a:	62 75       	andi	r22, 0x52	; 82
 12c:	69 6c       	ori	r22, 0xC9	; 201
 12e:	64 31       	cpi	r22, 0x14	; 20
 130:	39 37       	cpi	r19, 0x79	; 121
 132:	36 36       	cpi	r19, 0x66	; 102
 134:	39 31       	cpi	r19, 0x19	; 25
 136:	33 32       	cpi	r19, 0x23	; 35
 138:	30 33       	cpi	r19, 0x30	; 48
 13a:	35 36       	cpi	r19, 0x65	; 101
 13c:	30 39       	cpi	r19, 0x90	; 144
 13e:	32 37       	cpi	r19, 0x72	; 114
 140:	39 2e       	mov	r3, r25
 142:	74 6d       	ori	r23, 0xD4	; 212
 144:	70 2f       	mov	r23, r16
 146:	73 6b       	ori	r23, 0xB3	; 179
 148:	65 74       	andi	r22, 0x45	; 69
 14a:	63 68       	ori	r22, 0x83	; 131
 14c:	5f 66       	ori	r21, 0x6F	; 111
 14e:	65 62       	ori	r22, 0x25	; 37
 150:	31 37       	cpi	r19, 0x71	; 113
 152:	61 2e       	mov	r6, r17
 154:	63 70       	andi	r22, 0x03	; 3
 156:	70 00       	.word	0x0070	; ????
 158:	75 69       	ori	r23, 0x95	; 149
 15a:	6e 74       	andi	r22, 0x4E	; 78
 15c:	38 5f       	subi	r19, 0xF8	; 248
 15e:	74 00       	.word	0x0074	; ????
 160:	6c 6f       	ori	r22, 0xFC	; 252
 162:	6e 67       	ori	r22, 0x7E	; 126
 164:	20 6c       	ori	r18, 0xC0	; 192
 166:	6f 6e       	ori	r22, 0xEF	; 239
 168:	67 20       	and	r6, r7
 16a:	69 6e       	ori	r22, 0xE9	; 233
 16c:	74 00       	.word	0x0074	; ????
 16e:	63 68       	ori	r22, 0x83	; 131
 170:	61 72       	andi	r22, 0x21	; 33
 172:	00 64       	ori	r16, 0x40	; 64
 174:	65 6c       	ori	r22, 0xC5	; 197
 176:	61 79       	andi	r22, 0x91	; 145
 178:	00 2f       	mov	r16, r16
 17a:	68 6f       	ori	r22, 0xF8	; 248
 17c:	6d 65       	ori	r22, 0x5D	; 93
 17e:	2f 64       	ori	r18, 0x4F	; 79
 180:	65 6c       	ori	r22, 0xC5	; 197
 182:	76 65       	ori	r23, 0x56	; 86
 184:	72 2f       	mov	r23, r18
 186:	d0 97       	sbiw	r26, 0x30	; 48
 188:	d0 b0       	in	r13, 0x00	; 0
 18a:	d0 b3       	in	r29, 0x10	; 16
 18c:	d1 80       	ldd	r13, Z+1	; 0x01
 18e:	d1 83       	std	Z+1, r29	; 0x01
 190:	d0 b7       	in	r29, 0x30	; 48
 192:	d0 ba       	out	0x10, r13	; 16
 194:	d0 b8       	out	0x00, r13	; 0
 196:	2f 61       	ori	r18, 0x1F	; 31
 198:	72 64       	ori	r23, 0x42	; 66
 19a:	75 69       	ori	r23, 0x95	; 149
 19c:	6e 6f       	ori	r22, 0xFE	; 254
 19e:	2d 31       	cpi	r18, 0x1D	; 29
 1a0:	2e 36       	cpi	r18, 0x6E	; 110
 1a2:	2e 30       	cpi	r18, 0x0E	; 14
 1a4:	00 6c       	ori	r16, 0xC0	; 192
 1a6:	6f 6e       	ori	r22, 0xEF	; 239
 1a8:	67 20       	and	r6, r7
 1aa:	69 6e       	ori	r22, 0xE9	; 233
 1ac:	74 00       	.word	0x0074	; ????
 1ae:	73 69       	ori	r23, 0x93	; 147
 1b0:	67 6e       	ori	r22, 0xE7	; 231
 1b2:	65 64       	ori	r22, 0x45	; 69
 1b4:	20 63       	ori	r18, 0x30	; 48
 1b6:	68 61       	ori	r22, 0x18	; 24
 1b8:	72 00       	.word	0x0072	; ????

Disassembly of section .comment:

00000000 <.comment>:
   0:	00 47       	sbci	r16, 0x70	; 112
   2:	43 43       	sbci	r20, 0x33	; 51
   4:	3a 20       	and	r3, r10
   6:	28 47       	sbci	r18, 0x78	; 120
   8:	4e 55       	subi	r20, 0x5E	; 94
   a:	29 20       	and	r2, r9
   c:	34 2e       	mov	r3, r20
   e:	38 2e       	mov	r3, r24
  10:	31 00       	.word	0x0031	; ????

Disassembly of section .debug_frame:

00000000 <.debug_frame>:
   0:	10 00       	.word	0x0010	; ????
   2:	00 00       	nop
   4:	ff ff       	.word	0xffff	; ????
   6:	ff ff       	.word	0xffff	; ????
   8:	01 00       	.word	0x0001	; ????
   a:	02 7f       	andi	r16, 0xF2	; 242
   c:	24 0c       	add	r2, r4
   e:	20 02       	muls	r18, r16
  10:	a4 01       	movw	r20, r8
  12:	00 00       	nop
  14:	0c 00       	.word	0x000c	; ????
	...
  1e:	00 00       	nop
  20:	0a 00       	.word	0x000a	; ????
  22:	00 00       	nop
  24:	18 00       	.word	0x0018	; ????
	...
  2e:	00 00       	nop
  30:	34 00       	.word	0x0034	; ????
  32:	00 00       	nop
  34:	41 0e       	add	r4, r17
  36:	03 9c       	mul	r0, r3
  38:	02 41       	sbci	r16, 0x12	; 18
  3a:	0e 04       	cpc	r0, r14
  3c:	9d 03       	fmulsu	r17, r21
	...
